; Function Attrs: mustprogress uwtable
define hidden noundef zeroext i1 @_ZN14arith_rewriter12elim_to_realEP4exprS1_R7obj_refIS0_11ast_managerES5_(ptr noundef nonnull align 8 dereferenceable(96) %this, ptr noundef nonnull %arg1, ptr noundef %arg2, ptr nocapture noundef nonnull align 8 dereferenceable(16) %new_arg1, ptr nocapture noundef nonnull align 8 dereferenceable(16) %new_arg2) local_unnamed_addr #3 align 2 {
entry:
  %call.i = tail call noundef ptr @_ZNK4expr8get_sortEv(ptr noundef nonnull align 4 dereferenceable(16) %arg1)
  %m_info.i.i.i.i.i = getelementptr inbounds i8, ptr %call.i, i64 24
  %0 = load ptr, ptr %m_info.i.i.i.i.i, align 8
  %cmp.i.i.i.i.i = icmp eq ptr %0, null
  br i1 %cmp.i.i.i.i.i, label %return, label %_ZNK4decl13get_family_idEv.exit.thread.i.i.i.i

_ZNK4decl13get_family_idEv.exit.thread.i.i.i.i:   ; preds = %entry
  %1 = load i32, ptr %0, align 8
  %cmp6.i.i.i.i = icmp eq i32 %1, 5
  br i1 %cmp6.i.i.i.i, label %_ZNK17arith_recognizers7is_realEPK4expr.exit, label %return

_ZNK17arith_recognizers7is_realEPK4expr.exit:     ; preds = %_ZNK4decl13get_family_idEv.exit.thread.i.i.i.i
  %m_kind.i.i.i.i.i.i = getelementptr inbounds i8, ptr %0, i64 4
  %2 = load i32, ptr %m_kind.i.i.i.i.i.i, align 4
  %cmp3.i.i.i.i = icmp eq i32 %2, 0
  br i1 %cmp3.i.i.i.i, label %if.end, label %return

if.end:                                           ; preds = %_ZNK17arith_recognizers7is_realEPK4expr.exit
  %call2 = tail call noundef zeroext i1 @_ZN14arith_rewriter16elim_to_real_polEP4exprR7obj_refIS0_11ast_managerE(ptr noundef nonnull align 8 dereferenceable(96) %this, ptr noundef nonnull %arg1, ptr noundef nonnull align 8 dereferenceable(16) %new_arg1)
  br i1 %call2, label %land.rhs, label %return

land.rhs:                                         ; preds = %if.end
  %call3 = tail call noundef zeroext i1 @_ZN14arith_rewriter16elim_to_real_polEP4exprR7obj_refIS0_11ast_managerE(ptr noundef nonnull align 8 dereferenceable(96) %this, ptr noundef %arg2, ptr noundef nonnull align 8 dereferenceable(16) %new_arg2)
  br label %return

return:                                           ; preds = %entry, %_ZNK4decl13get_family_idEv.exit.thread.i.i.i.i, %if.end, %land.rhs, %_ZNK17arith_recognizers7is_realEPK4expr.exit
  %retval.0 = phi i1 [ false, %_ZNK17arith_recognizers7is_realEPK4expr.exit ], [ false, %if.end ], [ %call3, %land.rhs ], [ false, %_ZNK4decl13get_family_idEv.exit.thread.i.i.i.i ], [ false, %entry ]
  ret i1 %retval.0
}